ccopy_reg
_reconstructor
p0
(cgoogle.oauth2.credentials
Credentials
p1
c__builtin__
object
p2
Ntp3
Rp4
(dp5
S'_token_uri'
p6
Vhttps://oauth2.googleapis.com/token
p7
sS'_client_secret'
p8
VuwHWPREP7WmhKgSFIIxpEjYK
p9
sS'_id_token'
p10
NsS'token'
p11
Vya29.a0AfH6SMCzEQxHOGKU6wldVS3iya_K9ueY3Dku4XEyd06exCaO7SzoFrYPJeW2Lx2wl4YmDcBeJoKMzrwVN39YNRHP-KIa918AsameLtxCbyG6e4erR6F75vbCGJSR0REhqvowlAKqs-ragPiPmCsVEvhiPSWvNenlaY4
p12
sS'_refresh_token'
p13
V1//0gEJ6cfWhbf8sCgYIARAAGBASNwF-L9IrA6p-dgfF-E1Pc9jtsbyUsZhS_UAzAw-HfJCdnfnfxyfZbp_F1lh6q24-IbVok34H8-c
p14
sS'_scopes'
p15
(lp16
S'https://www.googleapis.com/auth/calendar.readonly'
p17
asS'_client_id'
p18
V320753038001-614427shcliht8b283hvfvqmvh4h5r25.apps.googleusercontent.com
p19
sS'expiry'
p20
cdatetime
datetime
p21
(S'\x07\xe4\t\x12\t4\x1e\x0c\xa2`'
p22
tp23
Rp24
sb.